; Function Attrs: mustprogress nofree norecurse nosync nounwind ssp willreturn memory(argmem: read) uwtable
define noundef i64 @_ZNK6open3d4core7Indexer17NumOutputElementsEv(ptr noundef nonnull readonly align 8 captures(none) dereferenceable(842) %0) local_unnamed_addr #26 align 2 {
  %2 = getelementptr inbounds nuw i8, ptr %0, i64 832
  %3 = load i64, ptr %2, align 8, !tbaa !31
  %4 = icmp sgt i64 %3, 0
  br i1 %4, label %.lr.ph, label %._crit_edge

.lr.ph:                                           ; preds = %1
  %5 = getelementptr inbounds nuw i8, ptr %0, i64 600
  %6 = getelementptr inbounds nuw i8, ptr %0, i64 752
  br label %7

._crit_edge:                                      ; preds = %16, %1
  %.07.lcssa = phi i64 [ 1, %1 ], [ %.1, %16 ]
  ret i64 %.07.lcssa

7:                                                ; preds = %.lr.ph, %16
  %.09 = phi i64 [ 0, %.lr.ph ], [ %17, %16 ]
  %.078 = phi i64 [ 1, %.lr.ph ], [ %.1, %16 ]
  %8 = getelementptr inbounds nuw [5 x i64], ptr %5, i64 0, i64 %.09
  %9 = load i64, ptr %8, align 8, !tbaa !42
  %.not = icmp eq i64 %9, 0
  %10 = getelementptr inbounds nuw [5 x i64], ptr %6, i64 0, i64 %.09
  %11 = load i64, ptr %10, align 8, !tbaa !42
  br i1 %.not, label %12, label %._crit_edge10

12:                                               ; preds = %7
  %13 = icmp eq i64 %11, 0
  br i1 %13, label %._crit_edge10, label %16

._crit_edge10:                                    ; preds = %7, %12
  %14 = phi i64 [ 0, %12 ], [ %11, %7 ]
  %15 = mul nsw i64 %14, %.078
  br label %16

16:                                               ; preds = %12, %._crit_edge10
  %.1 = phi i64 [ %15, %._crit_edge10 ], [ %.078, %12 ]
  %17 = add nuw nsw i64 %.09, 1
  %exitcond.not = icmp eq i64 %17, %3
  br i1 %exitcond.not, label %._crit_edge, label %7, !llvm.loop !745
}